ccopy_reg
_reconstructor
p0
(cnetworkx.classes.digraph
DiGraph
p1
c__builtin__
object
p2
Ntp3
Rp4
(dp5
S'node'
p6
(dp7
S'10.0.0.4'
p8
(dp9
S'device'
p10
S'host'
p11
ssS'10.0.0.1'
p12
(dp13
g10
g11
sssS'graph'
p14
(dp15
sS'succ'
p16
(dp17
g8
(dp18
S'10.0.0.1'
p19
(dp20
S'src'
p21
I80
sS'dst'
p22
I53169
sS'weight'
p23
I1
sS'time'
p24
I1426877376
sssg12
(dp25
ssS'edge'
p26
g17
sS'pred'
p27
(dp28
g8
(dp29
sg12
(dp30
S'10.0.0.4'
p31
g20
sssS'adj'
p32
g17
sb.